; ModuleID = 'bench/lvgl/original/lv_draw_line.ll'
source_filename = "bench/lvgl/original/lv_draw_line.ll"
target datalayout = "e-m:e-p270:32:32-p271:32:32-p272:64:64-i64:64-i128:128-f80:128-n8:16:32:64-S128"
target triple = "x86_64-pc-linux-gnu"

%struct.lv_area_t = type { i32, i32, i32, i32 }

; Function Attrs: nounwind uwtable
define void @lv_draw_line_dsc_init(ptr noundef %0) local_unnamed_addr #0 {
  tail call void @lv_memset(ptr noundef %0, i8 noundef zeroext 0, i64 noundef 88) #4
  %2 = getelementptr inbounds nuw i8, ptr %0, i64 68
  store i32 1, ptr %2, align 4, !tbaa !3
  %3 = getelementptr inbounds nuw i8, ptr %0, i64 80
  store i8 -1, ptr %3, align 8, !tbaa !14
  %4 = getelementptr inbounds nuw i8, ptr %0, i64 64
  %5 = tail call i24 @lv_color_black() #4
  store i24 %5, ptr %4, align 8
  %6 = getelementptr inbounds nuw i8, ptr %0, i64 32
  store i64 88, ptr %6, align 8, !tbaa !15
  ret void
}

; Function Attrs: mustprogress nocallback nofree nosync nounwind willreturn memory(argmem: readwrite)
declare void @llvm.lifetime.start.p0(i64 immarg, ptr nocapture) #1

declare i24 @lv_color_black() local_unnamed_addr #2

; Function Attrs: mustprogress nocallback nofree nosync nounwind willreturn memory(argmem: readwrite)
declare void @llvm.lifetime.end.p0(i64 immarg, ptr nocapture) #1

; Function Attrs: mustprogress nofree norecurse nosync nounwind willreturn memory(argmem: read) uwtable
define ptr @lv_draw_task_get_line_dsc(ptr nocapture noundef readonly %0) local_unnamed_addr #3 {
  %2 = getelementptr inbounds nuw i8, ptr %0, i64 8
  %3 = load i32, ptr %2, align 8, !tbaa !16
  %4 = icmp eq i32 %3, 7
  br i1 %4, label %5, label %8

5:                                                ; preds = %1
  %6 = getelementptr inbounds nuw i8, ptr %0, i64 80
  %7 = load ptr, ptr %6, align 8, !tbaa !19
  br label %8

8:                                                ; preds = %1, %5
  %9 = phi ptr [ %7, %5 ], [ null, %1 ]
  ret ptr %9
}

; Function Attrs: nounwind uwtable
define void @lv_draw_line(ptr noundef %0, ptr noundef %1) local_unnamed_addr #0 {
  %3 = alloca %struct.lv_area_t, align 4
  %4 = getelementptr inbounds nuw i8, ptr %1, i64 68
  %5 = load i32, ptr %4, align 4, !tbaa !3
  %6 = icmp eq i32 %5, 0
  br i1 %6, label %43, label %7

7:                                                ; preds = %2
  %8 = getelementptr inbounds nuw i8, ptr %1, i64 80
  %9 = load i8, ptr %8, align 8, !tbaa !14
  %10 = icmp ult i8 %9, 3
  br i1 %10, label %43, label %11

11:                                               ; preds = %7
  call void @llvm.lifetime.start.p0(i64 16, ptr nonnull %3) #4
  %12 = getelementptr inbounds nuw i8, ptr %1, i64 48
  %13 = load float, ptr %12, align 8, !tbaa !20
  %14 = getelementptr inbounds nuw i8, ptr %1, i64 56
  %15 = load float, ptr %14, align 8, !tbaa !21
  %16 = fcmp olt float %13, %15
  %. = select i1 %16, float %13, float %15
  %17 = fptosi float %. to i32
  %18 = sub nsw i32 %17, %5
  store i32 %18, ptr %3, align 4, !tbaa !22
  %19 = fcmp ogt float %13, %15
  %20 = select i1 %19, float %13, float %15
  %21 = fptosi float %20 to i32
  %22 = add nsw i32 %5, %21
  %23 = getelementptr inbounds nuw i8, ptr %3, i64 8
  store i32 %22, ptr %23, align 4, !tbaa !23
  %24 = getelementptr inbounds nuw i8, ptr %1, i64 52
  %25 = load float, ptr %24, align 4, !tbaa !24
  %26 = getelementptr inbounds nuw i8, ptr %1, i64 60
  %27 = load float, ptr %26, align 4, !tbaa !25
  %28 = fcmp olt float %25, %27
  %29 = select i1 %28, float %25, float %27
  %30 = fptosi float %29 to i32
  %31 = sub nsw i32 %30, %5
  %32 = getelementptr inbounds nuw i8, ptr %3, i64 4
  store i32 %31, ptr %32, align 4, !tbaa !26
  %33 = fcmp ogt float %25, %27
  %34 = select i1 %33, float %25, float %27
  %35 = fptosi float %34 to i32
  %36 = add nsw i32 %5, %35
  %37 = getelementptr inbounds nuw i8, ptr %3, i64 12
  store i32 %36, ptr %37, align 4, !tbaa !27
  %38 = call ptr @lv_draw_add_task(ptr noundef %0, ptr noundef nonnull %3) #4
  %39 = call ptr @lv_malloc(i64 noundef 88) #4
  %40 = getelementptr inbounds nuw i8, ptr %38, i64 80
  store ptr %39, ptr %40, align 8, !tbaa !19
  %41 = call ptr @lv_memcpy(ptr noundef %39, ptr noundef nonnull %1, i64 noundef 88) #4
  %42 = getelementptr inbounds nuw i8, ptr %38, i64 8
  store i32 7, ptr %42, align 8, !tbaa !16
  call void @lv_draw_finalize_task_creation(ptr noundef %0, ptr noundef %38) #4
  call void @llvm.lifetime.end.p0(i64 16, ptr nonnull %3) #4
  br label %43

43:                                               ; preds = %7, %2, %11
  ret void
}

declare ptr @lv_draw_add_task(ptr noundef, ptr noundef) local_unnamed_addr #2

declare ptr @lv_malloc(i64 noundef) local_unnamed_addr #2

declare ptr @lv_memcpy(ptr noundef, ptr noundef, i64 noundef) local_unnamed_addr #2

declare void @lv_draw_finalize_task_creation(ptr noundef, ptr noundef) local_unnamed_addr #2

declare void @lv_memset(ptr noundef, i8 noundef zeroext, i64 noundef) local_unnamed_addr #2


!llvm.module.flags = !{!0, !1, !2}

!0 = !{i32 1, !"wchar_size", i32 4}
!1 = !{i32 8, !"PIC Level", i32 2}
!2 = !{i32 7, !"uwtable", i32 2}
!3 = !{!4, !9, i64 68}
!4 = !{!"", !5, i64 0, !11, i64 48, !11, i64 56, !13, i64 64, !9, i64 68, !9, i64 72, !9, i64 76, !7, i64 80, !9, i64 81, !7, i64 81, !7, i64 81, !7, i64 81}
!5 = !{!"", !6, i64 0, !9, i64 8, !9, i64 12, !9, i64 16, !6, i64 24, !10, i64 32, !6, i64 40}
!6 = !{!"any pointer", !7, i64 0}
!7 = !{!"omnipotent char", !8, i64 0}
!8 = !{!"Simple C/C++ TBAA"}
!9 = !{!"int", !7, i64 0}
!10 = !{!"long", !7, i64 0}
!11 = !{!"", !12, i64 0, !12, i64 4}
!12 = !{!"float", !7, i64 0}
!13 = !{!"", !7, i64 0, !7, i64 1, !7, i64 2}
!14 = !{!4, !7, i64 80}
!15 = !{!4, !10, i64 32}
!16 = !{!17, !9, i64 8}
!17 = !{!"_lv_draw_task_t", !6, i64 0, !9, i64 8, !18, i64 12, !18, i64 28, !18, i64 44, !18, i64 60, !9, i64 76, !6, i64 80, !7, i64 88, !7, i64 89}
!18 = !{!"", !9, i64 0, !9, i64 4, !9, i64 8, !9, i64 12}
!19 = !{!17, !6, i64 80}
!20 = !{!4, !12, i64 48}
!21 = !{!4, !12, i64 56}
!22 = !{!18, !9, i64 0}
!23 = !{!18, !9, i64 8}
!24 = !{!4, !12, i64 52}
!25 = !{!4, !12, i64 60}
!26 = !{!18, !9, i64 4}
!27 = !{!18, !9, i64 12}
